target datalayout = "e-m:e-p270:32:32-p271:32:32-p272:64:64-i64:64-i128:128-f80:128-n8:16:32:64-S128"
target triple = "x86_64-pc-linux-gnu"

; Function Attrs: mustprogress nounwind uwtable
define dso_local noundef i32 @_ZN4llvm19getUTF8SequenceSizeEPKhS1_(ptr noundef %0, ptr noundef %1) #0 {
  %3 = alloca ptr, align 8
  %4 = alloca ptr, align 8
  %5 = alloca i32, align 4
  store ptr %0, ptr %3, align 8
  store ptr %1, ptr %4, align 8
  %6 = load ptr, ptr %3, align 8
  %7 = load i8, ptr %6, align 1
  %8 = zext i8 %7 to i64
  %9 = getelementptr inbounds [256 x i8], ptr @_ZN4llvmL20trailingBytesForUTF8E, i64 0, i64 %8
  %10 = load i8, ptr %9, align 1
  %11 = sext i8 %10 to i32
  %12 = add nsw i32 %11, 1
  store i32 %12, ptr %5, align 4
  %13 = load i32, ptr %5, align 4
  %14 = sext i32 %13 to i64
  %15 = load ptr, ptr %4, align 8
  %16 = load ptr, ptr %3, align 8
  %17 = ptrtoint ptr %15 to i64
  %18 = ptrtoint ptr %16 to i64
  %19 = sub i64 %17, %18
  %20 = icmp sle i64 %14, %19
  br i1 %20, label %21, label %28

21:                                               ; preds = %2
  %22 = load ptr, ptr %3, align 8
  %23 = load i32, ptr %5, align 4
  %24 = call noundef zeroext i8 @_ZN4llvmL11isLegalUTF8EPKhi(ptr noundef %22, i32 noundef %23)
  %25 = icmp ne i8 %24, 0
  br i1 %25, label %26, label %28

26:                                               ; preds = %21
  %27 = load i32, ptr %5, align 4
  br label %29

28:                                               ; preds = %21, %2
  br label %29

29:                                               ; preds = %28, %26
  %30 = phi i32 [ %27, %26 ], [ 0, %28 ]
  ret i32 %30
}