; Function Attrs: mustprogress nofree norecurse nosync nounwind willreturn memory(argmem: read) uwtable
define dso_local noundef range(i32 -127, 129) i32 @_ZN4llvm19getUTF8SequenceSizeEPKhS1_(ptr noundef %0, ptr noundef %1) local_unnamed_addr #1 {
  %3 = load i8, ptr %0, align 1
  %4 = zext i8 %3 to i64
  %5 = getelementptr inbounds [256 x i8], ptr @_ZN4llvmL20trailingBytesForUTF8E, i64 0, i64 %4
  %6 = load i8, ptr %5, align 1
  %7 = sext i8 %6 to i32
  %8 = add nsw i32 %7, 1
  %9 = sext i32 %8 to i64
  %10 = ptrtoint ptr %1 to i64
  %11 = ptrtoint ptr %0 to i64
  %12 = sub i64 %10, %11
  %.not = icmp slt i64 %12, %9
  br i1 %.not, label %15, label %13

13:                                               ; preds = %2
  %14 = tail call fastcc noundef zeroext i8 @_ZN4llvmL11isLegalUTF8EPKhi(ptr noundef nonnull %0, i32 noundef %8)
  %.not6 = icmp eq i8 %14, 0
  %spec.select = select i1 %.not6, i32 0, i32 %8
  br label %15

15:                                               ; preds = %13, %2
  %16 = phi i32 [ 0, %2 ], [ %spec.select, %13 ]
  ret i32 %16
}